target datalayout = "e-m:e-p270:32:32-p271:32:32-p272:64:64-i64:64-i128:128-f80:128-n8:16:32:64-S128"
target triple = "x86_64-pc-linux-gnu"

%struct.mbedtls_mpi = type { ptr, i16, i16 }
%struct.mbedtls_rsa_context = type { i32, i64, %struct.mbedtls_mpi, %struct.mbedtls_mpi, %struct.mbedtls_mpi, %struct.mbedtls_mpi, %struct.mbedtls_mpi, %struct.mbedtls_mpi, %struct.mbedtls_mpi, %struct.mbedtls_mpi, %struct.mbedtls_mpi, %struct.mbedtls_mpi, %struct.mbedtls_mpi, %struct.mbedtls_mpi, %struct.mbedtls_mpi, i32, i32 }

; Function Attrs: nounwind uwtable
define hidden i32 @mbedtls_rsa_export_raw(ptr noundef %0, ptr noundef %1, i64 noundef %2, ptr noundef %3, i64 noundef %4, ptr noundef %5, i64 noundef %6, ptr noundef %7, i64 noundef %8, ptr noundef %9, i64 noundef %10) #0 {
  %12 = alloca i32, align 4
  %13 = alloca ptr, align 8
  %14 = alloca ptr, align 8
  %15 = alloca i64, align 8
  %16 = alloca ptr, align 8
  %17 = alloca i64, align 8
  %18 = alloca ptr, align 8
  %19 = alloca i64, align 8
  %20 = alloca ptr, align 8
  %21 = alloca i64, align 8
  %22 = alloca ptr, align 8
  %23 = alloca i64, align 8
  %24 = alloca i32, align 4
  %25 = alloca i32, align 4
  %26 = alloca i32, align 4
  store ptr %0, ptr %13, align 8, !tbaa !3
  store ptr %1, ptr %14, align 8, !tbaa !8
  store i64 %2, ptr %15, align 8, !tbaa !10
  store ptr %3, ptr %16, align 8, !tbaa !8
  store i64 %4, ptr %17, align 8, !tbaa !10
  store ptr %5, ptr %18, align 8, !tbaa !8
  store i64 %6, ptr %19, align 8, !tbaa !10
  store ptr %7, ptr %20, align 8, !tbaa !8
  store i64 %8, ptr %21, align 8, !tbaa !10
  store ptr %9, ptr %22, align 8, !tbaa !8
  store i64 %10, ptr %23, align 8, !tbaa !10
  call void @llvm.lifetime.start.p0(i64 4, ptr %24) #9
  store i32 0, ptr %24, align 4, !tbaa !12
  call void @llvm.lifetime.start.p0(i64 4, ptr %25) #9
  %27 = load ptr, ptr %13, align 8, !tbaa !3
  %28 = getelementptr inbounds nuw %struct.mbedtls_rsa_context, ptr %27, i32 0, i32 2
  %29 = call i32 @mbedtls_mpi_cmp_int(ptr noundef %28, i64 noundef 0)
  %30 = icmp ne i32 %29, 0
  br i1 %30, label %31, label %51

31:                                               ; preds = %11
  %32 = load ptr, ptr %13, align 8, !tbaa !3
  %33 = getelementptr inbounds nuw %struct.mbedtls_rsa_context, ptr %32, i32 0, i32 5
  %34 = call i32 @mbedtls_mpi_cmp_int(ptr noundef %33, i64 noundef 0)
  %35 = icmp ne i32 %34, 0
  br i1 %35, label %36, label %51

36:                                               ; preds = %31
  %37 = load ptr, ptr %13, align 8, !tbaa !3
  %38 = getelementptr inbounds nuw %struct.mbedtls_rsa_context, ptr %37, i32 0, i32 6
  %39 = call i32 @mbedtls_mpi_cmp_int(ptr noundef %38, i64 noundef 0)
  %40 = icmp ne i32 %39, 0
  br i1 %40, label %41, label %51

41:                                               ; preds = %36
  %42 = load ptr, ptr %13, align 8, !tbaa !3
  %43 = getelementptr inbounds nuw %struct.mbedtls_rsa_context, ptr %42, i32 0, i32 4
  %44 = call i32 @mbedtls_mpi_cmp_int(ptr noundef %43, i64 noundef 0)
  %45 = icmp ne i32 %44, 0
  br i1 %45, label %46, label %51

46:                                               ; preds = %41
  %47 = load ptr, ptr %13, align 8, !tbaa !3
  %48 = getelementptr inbounds nuw %struct.mbedtls_rsa_context, ptr %47, i32 0, i32 3
  %49 = call i32 @mbedtls_mpi_cmp_int(ptr noundef %48, i64 noundef 0)
  %50 = icmp ne i32 %49, 0
  br label %51

51:                                               ; preds = %46, %41, %36, %31, %11
  %52 = phi i1 [ false, %41 ], [ false, %36 ], [ false, %31 ], [ false, %11 ], [ %50, %46 ]
  %53 = zext i1 %52 to i32
  store i32 %53, ptr %25, align 4, !tbaa !12
  %54 = load i32, ptr %25, align 4, !tbaa !12
  %55 = icmp ne i32 %54, 0
  br i1 %55, label %67, label %56

56:                                               ; preds = %51
  %57 = load ptr, ptr %16, align 8, !tbaa !8
  %58 = icmp ne ptr %57, null
  br i1 %58, label %65, label %59

59:                                               ; preds = %56
  %60 = load ptr, ptr %18, align 8, !tbaa !8
  %61 = icmp ne ptr %60, null
  br i1 %61, label %65, label %62

62:                                               ; preds = %59
  %63 = load ptr, ptr %20, align 8, !tbaa !8
  %64 = icmp ne ptr %63, null
  br i1 %64, label %65, label %66

65:                                               ; preds = %62, %59, %56
  store i32 -16512, ptr %12, align 4
  store i32 1, ptr %26, align 4
  br label %145

66:                                               ; preds = %62
  br label %67

67:                                               ; preds = %66, %51
  %68 = load ptr, ptr %14, align 8, !tbaa !8
  %69 = icmp ne ptr %68, null
  br i1 %69, label %70, label %82

70:                                               ; preds = %67
  br label %71

71:                                               ; preds = %70
  %72 = load ptr, ptr %13, align 8, !tbaa !3
  %73 = getelementptr inbounds nuw %struct.mbedtls_rsa_context, ptr %72, i32 0, i32 2
  %74 = load ptr, ptr %14, align 8, !tbaa !8
  %75 = load i64, ptr %15, align 8, !tbaa !10
  %76 = call i32 @mbedtls_mpi_write_binary(ptr noundef %73, ptr noundef %74, i64 noundef %75)
  store i32 %76, ptr %24, align 4, !tbaa !12
  %77 = icmp ne i32 %76, 0
  br i1 %77, label %78, label %79

78:                                               ; preds = %71
  br label %143

79:                                               ; preds = %71
  br label %80

80:                                               ; preds = %79
  br label %81

81:                                               ; preds = %80
  br label %82

82:                                               ; preds = %81, %67
  %83 = load ptr, ptr %16, align 8, !tbaa !8
  %84 = icmp ne ptr %83, null
  br i1 %84, label %85, label %97

85:                                               ; preds = %82
  br label %86

86:                                               ; preds = %85
  %87 = load ptr, ptr %13, align 8, !tbaa !3
  %88 = getelementptr inbounds nuw %struct.mbedtls_rsa_context, ptr %87, i32 0, i32 5
  %89 = load ptr, ptr %16, align 8, !tbaa !8
  %90 = load i64, ptr %17, align 8, !tbaa !10
  %91 = call i32 @mbedtls_mpi_write_binary(ptr noundef %88, ptr noundef %89, i64 noundef %90)
  store i32 %91, ptr %24, align 4, !tbaa !12
  %92 = icmp ne i32 %91, 0
  br i1 %92, label %93, label %94

93:                                               ; preds = %86
  br label %143

94:                                               ; preds = %86
  br label %95

95:                                               ; preds = %94
  br label %96

96:                                               ; preds = %95
  br label %97

97:                                               ; preds = %96, %82
  %98 = load ptr, ptr %18, align 8, !tbaa !8
  %99 = icmp ne ptr %98, null
  br i1 %99, label %100, label %112

100:                                              ; preds = %97
  br label %101

101:                                              ; preds = %100
  %102 = load ptr, ptr %13, align 8, !tbaa !3
  %103 = getelementptr inbounds nuw %struct.mbedtls_rsa_context, ptr %102, i32 0, i32 6
  %104 = load ptr, ptr %18, align 8, !tbaa !8
  %105 = load i64, ptr %19, align 8, !tbaa !10
  %106 = call i32 @mbedtls_mpi_write_binary(ptr noundef %103, ptr noundef %104, i64 noundef %105)
  store i32 %106, ptr %24, align 4, !tbaa !12
  %107 = icmp ne i32 %106, 0
  br i1 %107, label %108, label %109

108:                                              ; preds = %101
  br label %143

109:                                              ; preds = %101
  br label %110

110:                                              ; preds = %109
  br label %111

111:                                              ; preds = %110
  br label %112

112:                                              ; preds = %111, %97
  %113 = load ptr, ptr %20, align 8, !tbaa !8
  %114 = icmp ne ptr %113, null
  br i1 %114, label %115, label %127

115:                                              ; preds = %112
  br label %116

116:                                              ; preds = %115
  %117 = load ptr, ptr %13, align 8, !tbaa !3
  %118 = getelementptr inbounds nuw %struct.mbedtls_rsa_context, ptr %117, i32 0, i32 4
  %119 = load ptr, ptr %20, align 8, !tbaa !8
  %120 = load i64, ptr %21, align 8, !tbaa !10
  %121 = call i32 @mbedtls_mpi_write_binary(ptr noundef %118, ptr noundef %119, i64 noundef %120)
  store i32 %121, ptr %24, align 4, !tbaa !12
  %122 = icmp ne i32 %121, 0
  br i1 %122, label %123, label %124

123:                                              ; preds = %116
  br label %143

124:                                              ; preds = %116
  br label %125

125:                                              ; preds = %124
  br label %126

126:                                              ; preds = %125
  br label %127

127:                                              ; preds = %126, %112
  %128 = load ptr, ptr %22, align 8, !tbaa !8
  %129 = icmp ne ptr %128, null
  br i1 %129, label %130, label %142

130:                                              ; preds = %127
  br label %131

131:                                              ; preds = %130
  %132 = load ptr, ptr %13, align 8, !tbaa !3
  %133 = getelementptr inbounds nuw %struct.mbedtls_rsa_context, ptr %132, i32 0, i32 3
  %134 = load ptr, ptr %22, align 8, !tbaa !8
  %135 = load i64, ptr %23, align 8, !tbaa !10
  %136 = call i32 @mbedtls_mpi_write_binary(ptr noundef %133, ptr noundef %134, i64 noundef %135)
  store i32 %136, ptr %24, align 4, !tbaa !12
  %137 = icmp ne i32 %136, 0
  br i1 %137, label %138, label %139

138:                                              ; preds = %131
  br label %143

139:                                              ; preds = %131
  br label %140

140:                                              ; preds = %139
  br label %141

141:                                              ; preds = %140
  br label %142

142:                                              ; preds = %141, %127
  br label %143

143:                                              ; preds = %142, %138, %123, %108, %93, %78
  %144 = load i32, ptr %24, align 4, !tbaa !12
  store i32 %144, ptr %12, align 4
  store i32 1, ptr %26, align 4
  br label %145

145:                                              ; preds = %143, %65
  call void @llvm.lifetime.end.p0(i64 4, ptr %25) #9
  call void @llvm.lifetime.end.p0(i64 4, ptr %24) #9
  %146 = load i32, ptr %12, align 4
  ret i32 %146
}