; Function Attrs: nounwind uwtable
define hidden i32 @mbedtls_rsa_export_raw(ptr noundef %0, ptr noundef %1, i64 noundef %2, ptr noundef %3, i64 noundef %4, ptr noundef %5, i64 noundef %6, ptr noundef %7, i64 noundef %8, ptr noundef %9, i64 noundef %10) local_unnamed_addr #0 {
  %12 = getelementptr inbounds nuw i8, ptr %0, i64 16
  %13 = tail call i32 @mbedtls_mpi_cmp_int(ptr noundef nonnull %12, i64 noundef 0) #14
  %.not = icmp eq i32 %13, 0
  br i1 %.not, label %.critedge, label %14

14:                                               ; preds = %11
  %15 = getelementptr inbounds nuw i8, ptr %0, i64 64
  %16 = tail call i32 @mbedtls_mpi_cmp_int(ptr noundef nonnull %15, i64 noundef 0) #14
  %.not46 = icmp eq i32 %16, 0
  br i1 %.not46, label %.critedge, label %17

17:                                               ; preds = %14
  %18 = getelementptr inbounds nuw i8, ptr %0, i64 80
  %19 = tail call i32 @mbedtls_mpi_cmp_int(ptr noundef nonnull %18, i64 noundef 0) #14
  %.not47 = icmp eq i32 %19, 0
  br i1 %.not47, label %.critedge, label %20

20:                                               ; preds = %17
  %21 = getelementptr inbounds nuw i8, ptr %0, i64 48
  %22 = tail call i32 @mbedtls_mpi_cmp_int(ptr noundef nonnull %21, i64 noundef 0) #14
  %.not48 = icmp eq i32 %22, 0
  br i1 %.not48, label %.critedge, label %23

23:                                               ; preds = %20
  %24 = getelementptr inbounds nuw i8, ptr %0, i64 32
  %25 = tail call i32 @mbedtls_mpi_cmp_int(ptr noundef nonnull %24, i64 noundef 0) #14
  %.not56 = icmp eq i32 %25, 0
  br i1 %.not56, label %.critedge, label %29

.critedge:                                        ; preds = %20, %17, %14, %11, %23
  %26 = icmp ne ptr %3, null
  %27 = icmp ne ptr %5, null
  %or.cond = or i1 %26, %27
  %28 = icmp ne ptr %7, null
  %or.cond3 = or i1 %or.cond, %28
  br i1 %or.cond3, label %50, label %29

29:                                               ; preds = %.critedge, %23
  %.not49 = icmp eq ptr %1, null
  br i1 %.not49, label %32, label %30

30:                                               ; preds = %29
  %31 = tail call i32 @mbedtls_mpi_write_binary(ptr noundef nonnull %12, ptr noundef nonnull %1, i64 noundef %2) #14
  %.not50 = icmp eq i32 %31, 0
  br i1 %.not50, label %32, label %50

32:                                               ; preds = %30, %29
  %.not51 = icmp eq ptr %3, null
  br i1 %.not51, label %36, label %33

33:                                               ; preds = %32
  %34 = getelementptr inbounds nuw i8, ptr %0, i64 64
  %35 = tail call i32 @mbedtls_mpi_write_binary(ptr noundef nonnull %34, ptr noundef nonnull %3, i64 noundef %4) #14
  %.not52 = icmp eq i32 %35, 0
  br i1 %.not52, label %36, label %50

36:                                               ; preds = %33, %32
  %.not53 = icmp eq ptr %5, null
  br i1 %.not53, label %40, label %37

37:                                               ; preds = %36
  %38 = getelementptr inbounds nuw i8, ptr %0, i64 80
  %39 = tail call i32 @mbedtls_mpi_write_binary(ptr noundef nonnull %38, ptr noundef nonnull %5, i64 noundef %6) #14
  %.not54 = icmp eq i32 %39, 0
  br i1 %.not54, label %40, label %50

40:                                               ; preds = %37, %36
  %.not55 = icmp eq ptr %7, null
  br i1 %.not55, label %46, label %41

41:                                               ; preds = %40
  %42 = getelementptr inbounds nuw i8, ptr %0, i64 48
  %43 = tail call i32 @mbedtls_mpi_write_binary(ptr noundef nonnull %42, ptr noundef nonnull %7, i64 noundef %8) #14
  %44 = icmp eq i32 %43, 0
  %45 = icmp ne ptr %9, null
  %or.cond5 = and i1 %45, %44
  br i1 %or.cond5, label %47, label %50

46:                                               ; preds = %40
  %.old4.not = icmp eq ptr %9, null
  br i1 %.old4.not, label %50, label %47

47:                                               ; preds = %41, %46
  %48 = getelementptr inbounds nuw i8, ptr %0, i64 32
  %49 = tail call i32 @mbedtls_mpi_write_binary(ptr noundef nonnull %48, ptr noundef nonnull %9, i64 noundef %10) #14
  br label %50

50:                                               ; preds = %30, %33, %37, %41, %46, %47, %.critedge
  %.0 = phi i32 [ -16512, %.critedge ], [ %31, %30 ], [ %35, %33 ], [ %39, %37 ], [ %49, %47 ], [ %43, %41 ], [ 0, %46 ]
  ret i32 %.0
}